; Function Attrs: nofree norecurse nosync nounwind memory(argmem: write) uwtable
define i32 @ossl_i2c_uint64_int(ptr noundef writeonly captures(address_is_null) %0, i64 noundef %1, i32 noundef %2) local_unnamed_addr #5 {
  %4 = alloca [8 x i8], align 1
  call void @llvm.lifetime.start.p0(i64 8, ptr nonnull %4) #6
  br label %5

5:                                                ; preds = %5, %3
  %.04.i = phi i64 [ %1, %3 ], [ %9, %5 ]
  %.0.i = phi i64 [ 8, %3 ], [ %7, %5 ]
  %6 = trunc i64 %.04.i to i8
  %7 = add nsw i64 %.0.i, -1
  %8 = getelementptr inbounds nuw i8, ptr %4, i64 %7
  store i8 %6, ptr %8, align 1, !tbaa !13
  %9 = lshr i64 %.04.i, 8
  %.not.i = icmp ult i64 %.04.i, 256
  br i1 %.not.i, label %asn1_put_uint64.exit, label %5, !llvm.loop !24

asn1_put_uint64.exit:                             ; preds = %5
  %10 = getelementptr inbounds nuw i8, ptr %4, i64 %7
  %11 = sub i64 9, %.0.i
  %.not = icmp eq i64 %.0.i, 9
  br i1 %.not, label %.thread, label %12

12:                                               ; preds = %asn1_put_uint64.exit
  %13 = icmp eq i32 %2, 0
  %14 = icmp slt i8 %6, 0
  br i1 %13, label %27, label %15

15:                                               ; preds = %12
  %16 = icmp ugt i8 %6, -128
  br i1 %16, label %27, label %17

17:                                               ; preds = %15
  %18 = icmp eq i8 %6, -128
  br i1 %18, label %.preheader.i, label %27

.preheader.i:                                     ; preds = %17
  %19 = icmp ugt i64 %11, 1
  br i1 %19, label %.lr.ph.i, label %._crit_edge.i

.lr.ph.i:                                         ; preds = %.preheader.i, %.lr.ph.i
  %.03649.i = phi i64 [ %24, %.lr.ph.i ], [ 1, %.preheader.i ]
  %.13948.i = phi i32 [ %23, %.lr.ph.i ], [ 0, %.preheader.i ]
  %20 = getelementptr inbounds nuw i8, ptr %10, i64 %.03649.i
  %21 = load i8, ptr %20, align 1, !tbaa !13
  %22 = zext i8 %21 to i32
  %23 = or i32 %.13948.i, %22
  %24 = add nuw nsw i64 %.03649.i, 1
  %exitcond.not.i = icmp eq i64 %24, %11
  br i1 %exitcond.not.i, label %._crit_edge.loopexit.i, label %.lr.ph.i, !llvm.loop !14

._crit_edge.loopexit.i:                           ; preds = %.lr.ph.i
  %25 = icmp ne i32 %23, 0
  br label %._crit_edge.i

._crit_edge.i:                                    ; preds = %._crit_edge.loopexit.i, %.preheader.i
  %.139.lcssa.i = phi i1 [ false, %.preheader.i ], [ %25, %._crit_edge.loopexit.i ]
  %26 = sext i1 %.139.lcssa.i to i8
  br label %27

27:                                               ; preds = %12, %15, %17, %._crit_edge.i
  %.038.shrunk.i = phi i1 [ %.139.lcssa.i, %._crit_edge.i ], [ false, %17 ], [ %14, %12 ], [ true, %15 ]
  %.0.i4 = phi i8 [ %26, %._crit_edge.i ], [ -1, %17 ], [ 0, %12 ], [ -1, %15 ]
  %.038.i = zext i1 %.038.shrunk.i to i64
  %28 = add i64 %11, %.038.i
  %29 = icmp eq ptr %0, null
  br i1 %29, label %i2c_ibuf.exit, label %.lr.ph.preheader.i.i

.thread:                                          ; preds = %asn1_put_uint64.exit
  %30 = icmp eq ptr %0, null
  br i1 %30, label %i2c_ibuf.exit, label %.thread15

.thread15:                                        ; preds = %.thread
  store i8 0, ptr %0, align 1, !tbaa !13
  br label %i2c_ibuf.exit

.lr.ph.preheader.i.i:                             ; preds = %27
  store i8 %.0.i4, ptr %0, align 1, !tbaa !13
  %31 = getelementptr inbounds nuw i8, ptr %0, i64 %.038.i
  %32 = getelementptr inbounds nuw i8, ptr %4, i64 8
  %33 = getelementptr inbounds nuw i8, ptr %31, i64 %11
  %34 = and i8 %.0.i4, 1
  %35 = zext nneg i8 %34 to i32
  br label %.lr.ph.i.i

.lr.ph.i.i:                                       ; preds = %.lr.ph.i.i, %.lr.ph.preheader.i.i
  %.021.i.i = phi i32 [ %44, %.lr.ph.i.i ], [ %35, %.lr.ph.preheader.i.i ]
  %.120.i.i = phi ptr [ %43, %.lr.ph.i.i ], [ %33, %.lr.ph.preheader.i.i ]
  %.01219.i.i = phi i64 [ %36, %.lr.ph.i.i ], [ %11, %.lr.ph.preheader.i.i ]
  %.11418.i.i = phi ptr [ %37, %.lr.ph.i.i ], [ %32, %.lr.ph.preheader.i.i ]
  %36 = add nsw i64 %.01219.i.i, -1
  %37 = getelementptr inbounds i8, ptr %.11418.i.i, i64 -1
  %38 = load i8, ptr %37, align 1, !tbaa !13
  %39 = xor i8 %38, %.0.i4
  %40 = zext i8 %39 to i32
  %41 = add nuw nsw i32 %.021.i.i, %40
  %42 = trunc i32 %41 to i8
  %43 = getelementptr inbounds i8, ptr %.120.i.i, i64 -1
  store i8 %42, ptr %43, align 1, !tbaa !13
  %44 = lshr i32 %41, 8
  %.not16.i.i = icmp eq i64 %36, 0
  br i1 %.not16.i.i, label %i2c_ibuf.exit, label %.lr.ph.i.i, !llvm.loop !17

i2c_ibuf.exit:                                    ; preds = %.lr.ph.i.i, %.thread15, %.thread, %27
  %.037.i13 = phi i64 [ 1, %.thread ], [ %28, %27 ], [ 1, %.thread15 ], [ %28, %.lr.ph.i.i ]
  %45 = trunc i64 %.037.i13 to i32
  call void @llvm.lifetime.end.p0(i64 8, ptr nonnull %4) #6
  ret i32 %45
}